; ModuleID = '35/1760.c'
source_filename = "35/1760.c"
target datalayout = "e-m:e-p270:32:32-p271:32:32-p272:64:64-i64:64-f80:128-n8:16:32:64-S128"
target triple = "x86_64-pc-linux-gnu"

@.str = private unnamed_addr constant [9 x i8] c"%d %c %d\00", align 1
@.str.1 = private unnamed_addr constant [3 x i8] c"%d\00", align 1
@.str.2 = private unnamed_addr constant [6 x i8] c"%d+%d\00", align 1
@.str.3 = private unnamed_addr constant [3 x i8] c"No\00", align 1

; Function Attrs: noinline nounwind uwtable
define dso_local i32 @main() #0 {
  %1 = alloca i32, align 4
  %2 = alloca i32, align 4
  %3 = alloca i32, align 4
  %4 = alloca i32, align 4
  %5 = alloca i32, align 4
  %6 = alloca i32, align 4
  %7 = alloca [8 x [8 x i32]], align 16
  %8 = alloca i32, align 4
  %9 = alloca i32, align 4
  %10 = alloca i32, align 4
  %11 = alloca i32, align 4
  %12 = alloca i8, align 1
  store i32 0, i32* %1, align 4
  %13 = call i32 (i8*, ...) @__isoc99_scanf(i8* getelementptr inbounds ([9 x i8], [9 x i8]* @.str, i64 0, i64 0), i32* %2, i8* %12, i32* %3)
  store i32 0, i32* %5, align 4
  br label %14

14:                                               ; preds = %35, %0
  %15 = load i32, i32* %5, align 4
  %16 = load i32, i32* %2, align 4
  %17 = icmp slt i32 %15, %16
  br i1 %17, label %18, label %38

18:                                               ; preds = %14
  store i32 0, i32* %6, align 4
  br label %19

19:                                               ; preds = %31, %18
  %20 = load i32, i32* %6, align 4
  %21 = load i32, i32* %3, align 4
  %22 = icmp slt i32 %20, %21
  br i1 %22, label %23, label %34

23:                                               ; preds = %19
  %24 = load i32, i32* %5, align 4
  %25 = sext i32 %24 to i64
  %26 = getelementptr inbounds [8 x [8 x i32]], [8 x [8 x i32]]* %7, i64 0, i64 %25
  %27 = load i32, i32* %6, align 4
  %28 = sext i32 %27 to i64
  %29 = getelementptr inbounds [8 x i32], [8 x i32]* %26, i64 0, i64 %28
  %30 = call i32 (i8*, ...) @__isoc99_scanf(i8* getelementptr inbounds ([3 x i8], [3 x i8]* @.str.1, i64 0, i64 0), i32* %29)
  br label %31

31:                                               ; preds = %23
  %32 = load i32, i32* %6, align 4
  %33 = add nsw i32 %32, 1
  store i32 %33, i32* %6, align 4
  br label %19

34:                                               ; preds = %19
  br label %35

35:                                               ; preds = %34
  %36 = load i32, i32* %5, align 4
  %37 = add nsw i32 %36, 1
  store i32 %37, i32* %5, align 4
  br label %14

38:                                               ; preds = %14
  store i32 0, i32* %5, align 4
  br label %39

39:                                               ; preds = %109, %38
  %40 = load i32, i32* %5, align 4
  %41 = load i32, i32* %2, align 4
  %42 = icmp slt i32 %40, %41
  br i1 %42, label %43, label %112

43:                                               ; preds = %39
  %44 = load i32, i32* %5, align 4
  %45 = sext i32 %44 to i64
  %46 = getelementptr inbounds [8 x [8 x i32]], [8 x [8 x i32]]* %7, i64 0, i64 %45
  %47 = getelementptr inbounds [8 x i32], [8 x i32]* %46, i64 0, i64 0
  %48 = load i32, i32* %47, align 16
  store i32 %48, i32* %4, align 4
  store i32 0, i32* %9, align 4
  store i32 0, i32* %10, align 4
  store i32 0, i32* %8, align 4
  store i32 0, i32* %6, align 4
  br label %49

49:                                               ; preds = %74, %43
  %50 = load i32, i32* %6, align 4
  %51 = load i32, i32* %3, align 4
  %52 = icmp slt i32 %50, %51
  br i1 %52, label %53, label %77

53:                                               ; preds = %49
  %54 = load i32, i32* %5, align 4
  %55 = sext i32 %54 to i64
  %56 = getelementptr inbounds [8 x [8 x i32]], [8 x [8 x i32]]* %7, i64 0, i64 %55
  %57 = load i32, i32* %6, align 4
  %58 = sext i32 %57 to i64
  %59 = getelementptr inbounds [8 x i32], [8 x i32]* %56, i64 0, i64 %58
  %60 = load i32, i32* %59, align 4
  %61 = load i32, i32* %4, align 4
  %62 = icmp sgt i32 %60, %61
  br i1 %62, label %63, label %73

63:                                               ; preds = %53
  %64 = load i32, i32* %5, align 4
  %65 = sext i32 %64 to i64
  %66 = getelementptr inbounds [8 x [8 x i32]], [8 x [8 x i32]]* %7, i64 0, i64 %65
  %67 = load i32, i32* %6, align 4
  %68 = sext i32 %67 to i64
  %69 = getelementptr inbounds [8 x i32], [8 x i32]* %66, i64 0, i64 %68
  %70 = load i32, i32* %69, align 4
  store i32 %70, i32* %4, align 4
  %71 = load i32, i32* %5, align 4
  store i32 %71, i32* %9, align 4
  %72 = load i32, i32* %6, align 4
  store i32 %72, i32* %10, align 4
  br label %73

73:                                               ; preds = %63, %53
  br label %74

74:                                               ; preds = %73
  %75 = load i32, i32* %6, align 4
  %76 = add nsw i32 %75, 1
  store i32 %76, i32* %6, align 4
  br label %49

77:                                               ; preds = %49
  store i32 0, i32* %11, align 4
  br label %78

78:                                               ; preds = %97, %77
  %79 = load i32, i32* %11, align 4
  %80 = load i32, i32* %2, align 4
  %81 = icmp slt i32 %79, %80
  br i1 %81, label %82, label %100

82:                                               ; preds = %78
  %83 = load i32, i32* %4, align 4
  %84 = load i32, i32* %11, align 4
  %85 = sext i32 %84 to i64
  %86 = getelementptr inbounds [8 x [8 x i32]], [8 x [8 x i32]]* %7, i64 0, i64 %85
  %87 = load i32, i32* %10, align 4
  %88 = sext i32 %87 to i64
  %89 = getelementptr inbounds [8 x i32], [8 x i32]* %86, i64 0, i64 %88
  %90 = load i32, i32* %89, align 4
  %91 = icmp sgt i32 %83, %90
  br i1 %91, label %92, label %93

92:                                               ; preds = %82
  br label %100

93:                                               ; preds = %82
  %94 = load i32, i32* %8, align 4
  %95 = add nsw i32 %94, 1
  store i32 %95, i32* %8, align 4
  br label %96

96:                                               ; preds = %93
  br label %97

97:                                               ; preds = %96
  %98 = load i32, i32* %11, align 4
  %99 = add nsw i32 %98, 1
  store i32 %99, i32* %11, align 4
  br label %78

100:                                              ; preds = %92, %78
  %101 = load i32, i32* %8, align 4
  %102 = load i32, i32* %2, align 4
  %103 = icmp eq i32 %101, %102
  br i1 %103, label %104, label %108

104:                                              ; preds = %100
  %105 = load i32, i32* %9, align 4
  %106 = load i32, i32* %10, align 4
  %107 = call i32 (i8*, ...) @printf(i8* getelementptr inbounds ([6 x i8], [6 x i8]* @.str.2, i64 0, i64 0), i32 %105, i32 %106)
  br label %112

108:                                              ; preds = %100
  br label %109

109:                                              ; preds = %108
  %110 = load i32, i32* %5, align 4
  %111 = add nsw i32 %110, 1
  store i32 %111, i32* %5, align 4
  br label %39

112:                                              ; preds = %104, %39
  %113 = load i32, i32* %5, align 4
  %114 = load i32, i32* %2, align 4
  %115 = icmp eq i32 %113, %114
  br i1 %115, label %116, label %118

116:                                              ; preds = %112
  %117 = call i32 (i8*, ...) @printf(i8* getelementptr inbounds ([3 x i8], [3 x i8]* @.str.3, i64 0, i64 0))
  br label %118

118:                                              ; preds = %116, %112
  ret i32 0
}

declare dso_local i32 @__isoc99_scanf(i8*, ...) #1

declare dso_local i32 @printf(i8*, ...) #1


!llvm.module.flags = !{!0}
!llvm.ident = !{!1}

!0 = !{i32 1, !"wchar_size", i32 4}
!1 = !{!"clang version 10.0.0-4ubuntu1 "}
